target datalayout = "e-m:e-p270:32:32-p271:32:32-p272:64:64-i64:64-i128:128-f80:128-n8:16:32:64-S128"
target triple = "x86_64-pc-linux-gnu"

%struct.H5O_fsinfo_t = type { i32, i32, i8, i64, i64, i64, i64, [12 x i64], i8 }

@.str.9 = private unnamed_addr constant [9 x i8] c"%*s%-*s \00", align 1
@.str.10 = private unnamed_addr constant [1 x i8] zeroinitializer, align 1
@.str.11 = private unnamed_addr constant [21 x i8] c"File space strategy:\00", align 1
@.str.12 = private unnamed_addr constant [4 x i8] c"%s\0A\00", align 1
@.str.13 = private unnamed_addr constant [29 x i8] c"H5F_FSPACE_STRATEGY_FSM_AGGR\00", align 1
@.str.14 = private unnamed_addr constant [25 x i8] c"H5F_FSPACE_STRATEGY_PAGE\00", align 1
@.str.15 = private unnamed_addr constant [25 x i8] c"H5F_FSPACE_STRATEGY_AGGR\00", align 1
@.str.16 = private unnamed_addr constant [25 x i8] c"H5F_FSPACE_STRATEGY_NONE\00", align 1
@.str.17 = private unnamed_addr constant [8 x i8] c"unknown\00", align 1
@.str.18 = private unnamed_addr constant [12 x i8] c"%*s%-*s %s\0A\00", align 1
@.str.19 = private unnamed_addr constant [20 x i8] c"Free-space persist:\00", align 1
@.str.20 = private unnamed_addr constant [5 x i8] c"TRUE\00", align 1
@.str.21 = private unnamed_addr constant [6 x i8] c"FALSE\00", align 1
@.str.22 = private unnamed_addr constant [13 x i8] c"%*s%-*s %lu\0A\00", align 1
@.str.23 = private unnamed_addr constant [30 x i8] c"Free-space section threshold:\00", align 1
@.str.24 = private unnamed_addr constant [22 x i8] c"File space page size:\00", align 1
@.str.25 = private unnamed_addr constant [13 x i8] c"%*s%-*s %zu\0A\00", align 1
@.str.26 = private unnamed_addr constant [29 x i8] c"Page end metadata threshold:\00", align 1
@.str.27 = private unnamed_addr constant [21 x i8] c"eoa_pre_fsm_fsalloc:\00", align 1
@.str.28 = private unnamed_addr constant [28 x i8] c"Free space manager address:\00", align 1

; Function Attrs: nounwind uwtable
define internal i32 @H5O__fsinfo_debug(ptr noundef %0, ptr noundef %1, ptr noundef %2, i32 noundef %3, i32 noundef %4) #0 {
  %6 = alloca ptr, align 8
  %7 = alloca ptr, align 8
  %8 = alloca ptr, align 8
  %9 = alloca i32, align 4
  %10 = alloca i32, align 4
  %11 = alloca ptr, align 8
  %12 = alloca i32, align 4
  store ptr %0, ptr %6, align 8
  store ptr %1, ptr %7, align 8
  store ptr %2, ptr %8, align 8
  store i32 %3, ptr %9, align 4
  store i32 %4, ptr %10, align 4
  %13 = load ptr, ptr %7, align 8
  store ptr %13, ptr %11, align 8
  %14 = load ptr, ptr %8, align 8
  %15 = load i32, ptr %9, align 4
  %16 = load i32, ptr %10, align 4
  %17 = call i32 (ptr, ptr, ...) @fprintf(ptr noundef %14, ptr noundef @.str.9, i32 noundef %15, ptr noundef @.str.10, i32 noundef %16, ptr noundef @.str.11) #4
  %18 = load ptr, ptr %11, align 8
  %19 = getelementptr inbounds %struct.H5O_fsinfo_t, ptr %18, i32 0, i32 1
  %20 = load i32, ptr %19, align 4
  switch i32 %20, label %34 [
    i32 0, label %21
    i32 1, label %24
    i32 2, label %27
    i32 3, label %30
    i32 4, label %33
  ]

21:                                               ; preds = %5
  %22 = load ptr, ptr %8, align 8
  %23 = call i32 (ptr, ptr, ...) @fprintf(ptr noundef %22, ptr noundef @.str.12, ptr noundef @.str.13) #4
  br label %37

24:                                               ; preds = %5
  %25 = load ptr, ptr %8, align 8
  %26 = call i32 (ptr, ptr, ...) @fprintf(ptr noundef %25, ptr noundef @.str.12, ptr noundef @.str.14) #4
  br label %37

27:                                               ; preds = %5
  %28 = load ptr, ptr %8, align 8
  %29 = call i32 (ptr, ptr, ...) @fprintf(ptr noundef %28, ptr noundef @.str.12, ptr noundef @.str.15) #4
  br label %37

30:                                               ; preds = %5
  %31 = load ptr, ptr %8, align 8
  %32 = call i32 (ptr, ptr, ...) @fprintf(ptr noundef %31, ptr noundef @.str.12, ptr noundef @.str.16) #4
  br label %37

33:                                               ; preds = %5
  br label %34

34:                                               ; preds = %33, %5
  %35 = load ptr, ptr %8, align 8
  %36 = call i32 (ptr, ptr, ...) @fprintf(ptr noundef %35, ptr noundef @.str.12, ptr noundef @.str.17) #4
  br label %37

37:                                               ; preds = %34, %30, %27, %24, %21
  %38 = load ptr, ptr %8, align 8
  %39 = load i32, ptr %9, align 4
  %40 = load i32, ptr %10, align 4
  %41 = load ptr, ptr %11, align 8
  %42 = getelementptr inbounds %struct.H5O_fsinfo_t, ptr %41, i32 0, i32 2
  %43 = load i8, ptr %42, align 8
  %44 = trunc i8 %43 to i1
  %45 = select i1 %44, ptr @.str.20, ptr @.str.21
  %46 = call i32 (ptr, ptr, ...) @fprintf(ptr noundef %38, ptr noundef @.str.18, i32 noundef %39, ptr noundef @.str.10, i32 noundef %40, ptr noundef @.str.19, ptr noundef %45) #4
  %47 = load ptr, ptr %8, align 8
  %48 = load i32, ptr %9, align 4
  %49 = load i32, ptr %10, align 4
  %50 = load ptr, ptr %11, align 8
  %51 = getelementptr inbounds %struct.H5O_fsinfo_t, ptr %50, i32 0, i32 3
  %52 = load i64, ptr %51, align 8
  %53 = call i32 (ptr, ptr, ...) @fprintf(ptr noundef %47, ptr noundef @.str.22, i32 noundef %48, ptr noundef @.str.10, i32 noundef %49, ptr noundef @.str.23, i64 noundef %52) #4
  %54 = load ptr, ptr %8, align 8
  %55 = load i32, ptr %9, align 4
  %56 = load i32, ptr %10, align 4
  %57 = load ptr, ptr %11, align 8
  %58 = getelementptr inbounds %struct.H5O_fsinfo_t, ptr %57, i32 0, i32 4
  %59 = load i64, ptr %58, align 8
  %60 = call i32 (ptr, ptr, ...) @fprintf(ptr noundef %54, ptr noundef @.str.22, i32 noundef %55, ptr noundef @.str.10, i32 noundef %56, ptr noundef @.str.24, i64 noundef %59) #4
  %61 = load ptr, ptr %8, align 8
  %62 = load i32, ptr %9, align 4
  %63 = load i32, ptr %10, align 4
  %64 = load ptr, ptr %11, align 8
  %65 = getelementptr inbounds %struct.H5O_fsinfo_t, ptr %64, i32 0, i32 5
  %66 = load i64, ptr %65, align 8
  %67 = call i32 (ptr, ptr, ...) @fprintf(ptr noundef %61, ptr noundef @.str.25, i32 noundef %62, ptr noundef @.str.10, i32 noundef %63, ptr noundef @.str.26, i64 noundef %66) #4
  %68 = load ptr, ptr %8, align 8
  %69 = load i32, ptr %9, align 4
  %70 = load i32, ptr %10, align 4
  %71 = load ptr, ptr %11, align 8
  %72 = getelementptr inbounds %struct.H5O_fsinfo_t, ptr %71, i32 0, i32 6
  %73 = load i64, ptr %72, align 8
  %74 = call i32 (ptr, ptr, ...) @fprintf(ptr noundef %68, ptr noundef @.str.22, i32 noundef %69, ptr noundef @.str.10, i32 noundef %70, ptr noundef @.str.27, i64 noundef %73) #4
  %75 = load ptr, ptr %11, align 8
  %76 = getelementptr inbounds %struct.H5O_fsinfo_t, ptr %75, i32 0, i32 2
  %77 = load i8, ptr %76, align 8
  %78 = trunc i8 %77 to i1
  br i1 %78, label %79, label %99

79:                                               ; preds = %37
  store i32 1, ptr %12, align 4
  br label %80

80:                                               ; preds = %95, %79
  %81 = load i32, ptr %12, align 4
  %82 = icmp ult i32 %81, 13
  br i1 %82, label %83, label %98

83:                                               ; preds = %80
  %84 = load ptr, ptr %8, align 8
  %85 = load i32, ptr %9, align 4
  %86 = load i32, ptr %10, align 4
  %87 = load ptr, ptr %11, align 8
  %88 = getelementptr inbounds %struct.H5O_fsinfo_t, ptr %87, i32 0, i32 7
  %89 = load i32, ptr %12, align 4
  %90 = sub i32 %89, 1
  %91 = zext i32 %90 to i64
  %92 = getelementptr inbounds [12 x i64], ptr %88, i64 0, i64 %91
  %93 = load i64, ptr %92, align 8
  %94 = call i32 (ptr, ptr, ...) @fprintf(ptr noundef %84, ptr noundef @.str.22, i32 noundef %85, ptr noundef @.str.10, i32 noundef %86, ptr noundef @.str.28, i64 noundef %93) #4
  br label %95

95:                                               ; preds = %83
  %96 = load i32, ptr %12, align 4
  %97 = add i32 %96, 1
  store i32 %97, ptr %12, align 4
  br label %80

98:                                               ; preds = %80
  br label %99

99:                                               ; preds = %98, %37
  ret i32 0
}