; Function Attrs: nofree nounwind uwtable
define internal noundef i32 @H5O__fsinfo_debug(ptr nocapture readnone %0, ptr nocapture noundef readonly %1, ptr nocapture noundef %2, i32 noundef %3, i32 noundef %4) #1 {
  %6 = tail call i32 (ptr, ptr, ...) @fprintf(ptr noundef %2, ptr noundef nonnull @.str.9, i32 noundef %3, ptr noundef nonnull @.str.10, i32 noundef %4, ptr noundef nonnull @.str.11) #6
  %7 = getelementptr inbounds i8, ptr %1, i64 4
  %8 = load i32, ptr %7, align 4
  %9 = icmp ult i32 %8, 4
  br i1 %9, label %switch.lookup, label %11

switch.lookup:                                    ; preds = %5
  %10 = zext nneg i32 %8 to i64
  %switch.gep = getelementptr inbounds [4 x ptr], ptr @switch.table.H5O__fsinfo_debug, i64 0, i64 %10
  %switch.load = load ptr, ptr %switch.gep, align 8
  br label %11

11:                                               ; preds = %5, %switch.lookup
  %.str.17.sink = phi ptr [ %switch.load, %switch.lookup ], [ @.str.17, %5 ]
  %12 = tail call i32 (ptr, ptr, ...) @fprintf(ptr noundef %2, ptr noundef nonnull @.str.12, ptr noundef nonnull %.str.17.sink) #6
  %13 = getelementptr inbounds i8, ptr %1, i64 8
  %14 = load i8, ptr %13, align 8
  %15 = trunc i8 %14 to i1
  %16 = select i1 %15, ptr @.str.20, ptr @.str.21
  %17 = tail call i32 (ptr, ptr, ...) @fprintf(ptr noundef %2, ptr noundef nonnull @.str.18, i32 noundef %3, ptr noundef nonnull @.str.10, i32 noundef %4, ptr noundef nonnull @.str.19, ptr noundef nonnull %16) #6
  %18 = getelementptr inbounds i8, ptr %1, i64 16
  %19 = load i64, ptr %18, align 8
  %20 = tail call i32 (ptr, ptr, ...) @fprintf(ptr noundef %2, ptr noundef nonnull @.str.22, i32 noundef %3, ptr noundef nonnull @.str.10, i32 noundef %4, ptr noundef nonnull @.str.23, i64 noundef %19) #6
  %21 = getelementptr inbounds i8, ptr %1, i64 24
  %22 = load i64, ptr %21, align 8
  %23 = tail call i32 (ptr, ptr, ...) @fprintf(ptr noundef %2, ptr noundef nonnull @.str.22, i32 noundef %3, ptr noundef nonnull @.str.10, i32 noundef %4, ptr noundef nonnull @.str.24, i64 noundef %22) #6
  %24 = getelementptr inbounds i8, ptr %1, i64 32
  %25 = load i64, ptr %24, align 8
  %26 = tail call i32 (ptr, ptr, ...) @fprintf(ptr noundef %2, ptr noundef nonnull @.str.25, i32 noundef %3, ptr noundef nonnull @.str.10, i32 noundef %4, ptr noundef nonnull @.str.26, i64 noundef %25) #6
  %27 = getelementptr inbounds i8, ptr %1, i64 40
  %28 = load i64, ptr %27, align 8
  %29 = tail call i32 (ptr, ptr, ...) @fprintf(ptr noundef %2, ptr noundef nonnull @.str.22, i32 noundef %3, ptr noundef nonnull @.str.10, i32 noundef %4, ptr noundef nonnull @.str.27, i64 noundef %28) #6
  %30 = load i8, ptr %13, align 8
  %31 = trunc i8 %30 to i1
  br i1 %31, label %.preheader, label %.loopexit

.preheader:                                       ; preds = %11
  %32 = getelementptr inbounds i8, ptr %1, i64 48
  br label %33

33:                                               ; preds = %.preheader, %33
  %indvars.iv = phi i64 [ 1, %.preheader ], [ %indvars.iv.next, %33 ]
  %34 = add nsw i64 %indvars.iv, -1
  %35 = getelementptr inbounds [12 x i64], ptr %32, i64 0, i64 %34
  %36 = load i64, ptr %35, align 8
  %37 = tail call i32 (ptr, ptr, ...) @fprintf(ptr noundef %2, ptr noundef nonnull @.str.22, i32 noundef %3, ptr noundef nonnull @.str.10, i32 noundef %4, ptr noundef nonnull @.str.28, i64 noundef %36) #6
  %indvars.iv.next = add nuw nsw i64 %indvars.iv, 1
  %exitcond.not = icmp eq i64 %indvars.iv.next, 13
  br i1 %exitcond.not, label %.loopexit, label %33

.loopexit:                                        ; preds = %33, %11
  ret i32 0
}